(dp0
S'hps'
p1
(dp2
S'memoryFreeKb'
p3
I711948
sS'cpuClockSpeed'
p4
I0
sS'upTime'
p5
I547204
sS'oneMinLoad'
p6
I1
sS'memoryTotalKb'
p7
I763048
ssS'bandInfo'
p8
(dp9
S'adiSettings'
p10
(dp11
S'adiTxAttenutation'
p12
I88000
sS'adiTxClockHz'
p13
I49151999
sS'adiRxClockHz'
p14
I49151999
sS'adiTxLoHz'
p15
I3571503998
sS'adiGainValue'
p16
I59
sS'adiRxLoHz'
p17
I3571503998
ssS'sensor'
p18
(dp19
S'noiseRssiDbm'
p20
F-86.936111
sS'rmsAverage'
p21
F20.615528
sS'gpioOverLoad'
p22
I0
sS'gpioSPIvalue'
p23
I0
sS'dcI'
p24
I-1
sS'numDmaOverflows'
p25
I0
sS'iqImbalanceGaindB'
p26
I0
sS'iqImbalancePhaseDeg'
p27
I0
sS'agcGain'
p28
I59
sS'agcMaxVal'
p29
I131
sS'dcQ'
p30
I0
ssS'timeStampHealthCheck'
p31
F546924.772473
ssS'i2c'
p32
(dp33
S'compassChange'
p34
I0
sS'temperature'
p35
F106.505981
sS'humidity'
p36
F3.375244
sS'compass_x_axis'
p37
I-3222
sS'compass_y_axis'
p38
I2580
sS'compass_z_axis'
p39
I4112
ssS'bandIndex'
p40
I0
s.