(dp0
S'hps'
p1
(dp2
S'memoryFreeKb'
p3
I693576
sS'cpuClockSpeed'
p4
I0
sS'upTime'
p5
I194381
sS'oneMinLoad'
p6
I1
sS'memoryTotalKb'
p7
I763048
ssS'sensorId'
p8
S'fed_esc_029'
p9
sS'i2c'
p10
(dp11
S'compassChange'
p12
I0
sS'temperature'
p13
F106.886658
sS'humidity'
p14
F8.94165
sS'compass_x_axis'
p15
I174
sS'compass_y_axis'
p16
I-422
sS'compass_z_axis'
p17
I36
ssS'bandIndex'
p18
I0
sS'bandInfo'
p19
(dp20
S'adiSettings'
p21
(dp22
S'adiTxAttenutation'
p23
I88000
sS'adiTxClockHz'
p24
I49151999
sS'adiRxClockHz'
p25
I49151999
sS'adiTxLoHz'
p26
I3571503998
sS'adiGainValue'
p27
I57
sS'adiRxLoHz'
p28
I3571503998
ssS'sensor'
p29
(dp30
S'noiseRssiDbm'
p31
F-85.597069
sS'rmsAverage'
p32
F19.104973
sS'gpioOverLoad'
p33
I0
sS'gpioSPIvalue'
p34
I0
sS'dcI'
p35
I-17
sS'numDmaOverflows'
p36
I0
sS'iqImbalanceGaindB'
p37
I0
sS'iqImbalancePhaseDeg'
p38
I0
sS'agcGain'
p39
I57
sS'agcMaxVal'
p40
I128
sS'dcQ'
p41
I-11
ssS'timeStampHealthCheck'
p42
F89408.009705
ss.