(dp0
S'hps'
p1
(dp2
S'memoryFreeKb'
p3
I695932
sS'cpuClockSpeed'
p4
I0
sS'upTime'
p5
I164206
sS'oneMinLoad'
p6
I1
sS'memoryTotalKb'
p7
I763048
ssS'sensorId'
p8
S'fed_esc_029'
p9
sS'i2c'
p10
(dp11
S'compassChange'
p12
I0
sS'temperature'
p13
F107.122314
sS'humidity'
p14
F10.38208
sS'compass_x_axis'
p15
I179
sS'compass_y_axis'
p16
I-419
sS'compass_z_axis'
p17
I24
ssS'bandIndex'
p18
I1
sS'bandInfo'
p19
(dp20
S'adiSettings'
p21
(dp22
S'adiTxAttenutation'
p23
I88000
sS'adiTxClockHz'
p24
I49151999
sS'adiRxClockHz'
p25
I49151999
sS'adiTxLoHz'
p26
I3571503998
sS'adiGainValue'
p27
I56
sS'adiRxLoHz'
p28
I3621504000
ssS'sensor'
p29
(dp30
S'noiseRssiDbm'
p31
F-86.29303
sS'rmsAverage'
p32
F15.716233
sS'gpioOverLoad'
p33
I0
sS'gpioSPIvalue'
p34
I0
sS'dcI'
p35
I-9
sS'numDmaOverflows'
p36
I0
sS'iqImbalanceGaindB'
p37
I0
sS'iqImbalancePhaseDeg'
p38
I0
sS'agcGain'
p39
I56
sS'agcMaxVal'
p40
I110
sS'dcQ'
p41
I-13
ssS'timeStampHealthCheck'
p42
F59232.793453
ss.