(dp0
S'hps'
p1
(dp2
S'memoryFreeKb'
p3
I716896
sS'cpuClockSpeed'
p4
I0
sS'upTime'
p5
I15742
sS'oneMinLoad'
p6
I0
sS'memoryTotalKb'
p7
I763048
ssS'sensorId'
p8
S'fed_esc_029'
p9
sS'i2c'
p10
(dp11
S'compassChange'
p12
I0
sS'temperature'
p13
F110.403381
sS'humidity'
p14
F7.183838
sS'compass_x_axis'
p15
I162
sS'compass_y_axis'
p16
I-432
sS'compass_z_axis'
p17
I34
ssS'bandIndex'
p18
I0
sS'bandInfo'
p19
(dp20
S'adiSettings'
p21
(dp22
S'adiTxAttenutation'
p23
I88000
sS'adiTxClockHz'
p24
I49151999
sS'adiRxClockHz'
p25
I49151999
sS'adiTxLoHz'
p26
I3571503998
sS'adiGainValue'
p27
I57
sS'adiRxLoHz'
p28
I3571503998
ssS'sensor'
p29
(dp30
S'noiseRssiDbm'
p31
F-86.087822
sS'rmsAverage'
p32
F18.05547
sS'gpioOverLoad'
p33
I0
sS'gpioSPIvalue'
p34
I0
sS'dcI'
p35
I-6
sS'numDmaOverflows'
p36
I0
sS'iqImbalanceGaindB'
p37
I0
sS'iqImbalancePhaseDeg'
p38
I0
sS'agcGain'
p39
I57
sS'agcMaxVal'
p40
I254
sS'dcQ'
p41
I-16
ssS'timeStampHealthCheck'
p42
F15364.882156
ss.